; Function Attrs: nounwind uwtable
define internal void @iobase_dealloc(ptr noundef %0) #0 {
  %.val.i = load i32, ptr %0, align 8, !tbaa !9
  %2 = icmp eq i32 %.val.i, 0
  br i1 %2, label %_PyIOBase_finalize.exit, label %_PyIOBase_finalize.exit.thread

_PyIOBase_finalize.exit.thread:                   ; preds = %1
  tail call void @PyObject_CallFinalizer(ptr noundef nonnull %0) #6
  br label %14

_PyIOBase_finalize.exit:                          ; preds = %1
  %3 = tail call i32 @PyObject_CallFinalizerFromDealloc(ptr noundef nonnull %0) #6
  %4 = icmp slt i32 %3, 0
  br i1 %4, label %5, label %14

5:                                                ; preds = %_PyIOBase_finalize.exit
  %6 = getelementptr i8, ptr %0, i64 8
  %.val21 = load ptr, ptr %6, align 8, !tbaa !10
  %7 = getelementptr i8, ptr %.val21, i64 168
  %.val22 = load i64, ptr %7, align 8, !tbaa !16
  %8 = and i64 %.val22, 512
  %.not16 = icmp eq i64 %8, 0
  br i1 %.not16, label %Py_INCREF.exit, label %9

9:                                                ; preds = %5
  %10 = load i32, ptr %.val21, align 8, !tbaa !9
  %11 = icmp slt i32 %10, 0
  br i1 %11, label %Py_INCREF.exit, label %12

12:                                               ; preds = %9
  %13 = add nuw i32 %10, 1
  store i32 %13, ptr %.val21, align 8, !tbaa !9
  br label %Py_INCREF.exit

14:                                               ; preds = %_PyIOBase_finalize.exit.thread, %_PyIOBase_finalize.exit
  %15 = getelementptr i8, ptr %0, i64 8
  %.val = load ptr, ptr %15, align 8, !tbaa !10
  %16 = getelementptr i8, ptr %0, i64 -16
  %17 = getelementptr i8, ptr %0, i64 -8
  %.val.i23 = load i64, ptr %17, align 8, !tbaa !25
  %18 = and i64 %.val.i23, -4
  %19 = inttoptr i64 %18 to ptr
  %.val9.i = load i64, ptr %16, align 8, !tbaa !27
  %20 = and i64 %.val9.i, -4
  %21 = inttoptr i64 %20 to ptr
  %22 = load i64, ptr %19, align 8, !tbaa !27
  %23 = and i64 %22, 3
  %24 = or disjoint i64 %23, %20
  store i64 %24, ptr %19, align 8, !tbaa !27
  %25 = getelementptr inbounds nuw i8, ptr %21, i64 8
  %26 = load i64, ptr %25, align 8, !tbaa !25
  %27 = and i64 %26, 3
  %28 = or disjoint i64 %27, %18
  store i64 %28, ptr %25, align 8, !tbaa !25
  store i64 0, ptr %16, align 8, !tbaa !27
  %29 = load i64, ptr %17, align 8, !tbaa !25
  %30 = and i64 %29, 1
  store i64 %30, ptr %17, align 8, !tbaa !25
  %31 = getelementptr inbounds nuw i8, ptr %0, i64 24
  %32 = load ptr, ptr %31, align 8, !tbaa !28
  %.not = icmp eq ptr %32, null
  br i1 %.not, label %34, label %33

33:                                               ; preds = %14
  tail call void @PyObject_ClearWeakRefs(ptr noundef nonnull %0) #6
  br label %34

34:                                               ; preds = %14, %33
  %35 = getelementptr inbounds nuw i8, ptr %0, i64 16
  %36 = load ptr, ptr %35, align 8, !tbaa !4
  %.not15 = icmp eq ptr %36, null
  br i1 %.not15, label %Py_DECREF.exit18, label %37

37:                                               ; preds = %34
  store ptr null, ptr %35, align 8, !tbaa !4
  %38 = load i32, ptr %36, align 8, !tbaa !9
  %.not.i17 = icmp sgt i32 %38, -1
  br i1 %.not.i17, label %39, label %Py_DECREF.exit18

39:                                               ; preds = %37
  %40 = add nsw i32 %38, -1
  store i32 %40, ptr %36, align 8, !tbaa !9
  %41 = icmp eq i32 %40, 0
  br i1 %41, label %42, label %Py_DECREF.exit18

42:                                               ; preds = %39
  tail call void @_Py_Dealloc(ptr noundef nonnull %36) #6
  br label %Py_DECREF.exit18

Py_DECREF.exit18:                                 ; preds = %42, %39, %37, %34
  %43 = getelementptr inbounds nuw i8, ptr %.val, i64 320
  %44 = load ptr, ptr %43, align 8, !tbaa !30
  tail call void %44(ptr noundef nonnull %0) #6
  %45 = load i32, ptr %.val, align 8, !tbaa !9
  %.not.i = icmp sgt i32 %45, -1
  br i1 %.not.i, label %46, label %Py_INCREF.exit

46:                                               ; preds = %Py_DECREF.exit18
  %47 = add nsw i32 %45, -1
  store i32 %47, ptr %.val, align 8, !tbaa !9
  %48 = icmp eq i32 %47, 0
  br i1 %48, label %49, label %Py_INCREF.exit

49:                                               ; preds = %46
  tail call void @_Py_Dealloc(ptr noundef nonnull %.val) #6
  br label %Py_INCREF.exit

Py_INCREF.exit:                                   ; preds = %49, %46, %Py_DECREF.exit18, %12, %9, %5
  ret void
}